; Function Attrs: mustprogress uwtable
define void @_ZN32pxrInternal_v0_24__pxrReserved__32UsdImagingDataSourceRelationship13GetTypedValueEf(ptr dead_on_unwind noalias writable sret(%"class.pxrInternal_v0_24__pxrReserved__::VtArray") align 8 %0, ptr noundef nonnull align 8 dereferenceable(48) %1, float %2) unnamed_addr #1 align 2 personality ptr @__gxx_personality_v0 {
  %4 = alloca %"class.std::vector", align 8
  call void @llvm.memset.p0.i64(ptr noundef nonnull align 8 dereferenceable(24) %4, i8 0, i64 24, i1 false)
  %5 = getelementptr inbounds nuw i8, ptr %1, i64 8
  %6 = invoke noundef zeroext i1 @_ZNK32pxrInternal_v0_24__pxrReserved__15UsdRelationship19GetForwardedTargetsEPSt6vectorINS_7SdfPathESaIS2_EE(ptr noundef nonnull align 8 dereferenceable(32) %5, ptr noundef nonnull %4)
          to label %7 unwind label %16

7:                                                ; preds = %3
  %8 = load ptr, ptr %4, align 8
  %9 = getelementptr inbounds nuw i8, ptr %4, i64 8
  %10 = load ptr, ptr %9, align 8
  call void @llvm.memset.p0.i64(ptr noundef nonnull align 8 dereferenceable(40) %0, i8 0, i64 40, i1 false)
  invoke void @_ZN32pxrInternal_v0_24__pxrReserved__7VtArrayINS_7SdfPathEE6assignIN9__gnu_cxx17__normal_iteratorIPS1_St6vectorIS1_SaIS1_EEEEEENSt9enable_ifIXntsr3std11is_integralIT_EE5valueEvE4typeESC_SC_(ptr noundef nonnull align 8 dereferenceable(40) %0, ptr %8, ptr %10)
          to label %_ZN32pxrInternal_v0_24__pxrReserved__7VtArrayINS_7SdfPathEEC2IN9__gnu_cxx17__normal_iteratorIPS1_St6vectorIS1_SaIS1_EEEEEET_SB_PNSt9enable_ifIXntsr3std11is_integralISB_EE5valueEvE4typeE.exit unwind label %11

11:                                               ; preds = %7
  %12 = landingpad { ptr, i32 }
          cleanup
  invoke void @_ZN32pxrInternal_v0_24__pxrReserved__7VtArrayINS_7SdfPathEE7_DecRefEv(ptr noundef nonnull align 8 dereferenceable(40) %0)
          to label %.body unwind label %13

13:                                               ; preds = %11
  %14 = landingpad { ptr, i32 }
          catch ptr null
  %15 = extractvalue { ptr, i32 } %14, 0
  call void @__clang_call_terminate(ptr %15) #18
  unreachable

16:                                               ; preds = %3
  %17 = landingpad { ptr, i32 }
          cleanup
  br label %.body

.body:                                            ; preds = %11, %16
  %eh.lpad-body = phi { ptr, i32 } [ %17, %16 ], [ %12, %11 ]
  call void @_ZNSt6vectorIN32pxrInternal_v0_24__pxrReserved__7SdfPathESaIS1_EED2Ev(ptr noundef nonnull align 8 dereferenceable(24) %4) #19
  resume { ptr, i32 } %eh.lpad-body

_ZN32pxrInternal_v0_24__pxrReserved__7VtArrayINS_7SdfPathEEC2IN9__gnu_cxx17__normal_iteratorIPS1_St6vectorIS1_SaIS1_EEEEEET_SB_PNSt9enable_ifIXntsr3std11is_integralISB_EE5valueEvE4typeE.exit: ; preds = %7
  %18 = load ptr, ptr %4, align 8
  %19 = load ptr, ptr %9, align 8
  %.not4.i.i.i.i = icmp eq ptr %18, %19
  br i1 %.not4.i.i.i.i, label %_ZSt8_DestroyIPN32pxrInternal_v0_24__pxrReserved__7SdfPathES1_EvT_S3_RSaIT0_E.exit.i, label %.lr.ph.i.i.i.i

.lr.ph.i.i.i.i:                                   ; preds = %_ZN32pxrInternal_v0_24__pxrReserved__7VtArrayINS_7SdfPathEEC2IN9__gnu_cxx17__normal_iteratorIPS1_St6vectorIS1_SaIS1_EEEEEET_SB_PNSt9enable_ifIXntsr3std11is_integralISB_EE5valueEvE4typeE.exit, %_ZSt8_DestroyIN32pxrInternal_v0_24__pxrReserved__7SdfPathEEvPT_.exit.i.i.i.i
  %.05.i.i.i.i = phi ptr [ %38, %_ZSt8_DestroyIN32pxrInternal_v0_24__pxrReserved__7SdfPathEEvPT_.exit.i.i.i.i ], [ %18, %_ZN32pxrInternal_v0_24__pxrReserved__7VtArrayINS_7SdfPathEEC2IN9__gnu_cxx17__normal_iteratorIPS1_St6vectorIS1_SaIS1_EEEEEET_SB_PNSt9enable_ifIXntsr3std11is_integralISB_EE5valueEvE4typeE.exit ]
  %20 = load i32, ptr %.05.i.i.i.i, align 4
  %.not.i.i.i.i.i.i.i = icmp eq i32 %20, 0
  br i1 %.not.i.i.i.i.i.i.i, label %_ZSt8_DestroyIN32pxrInternal_v0_24__pxrReserved__7SdfPathEEvPT_.exit.i.i.i.i, label %21

21:                                               ; preds = %.lr.ph.i.i.i.i
  %22 = and i32 %20, 255
  %23 = lshr i32 %20, 8
  %24 = zext nneg i32 %22 to i64
  %25 = getelementptr inbounds [257 x ptr], ptr @_ZN32pxrInternal_v0_24__pxrReserved__8Sdf_PoolINS_15Sdf_PathPrimTagELj24ELj8ELj16384EE13_regionStartsE, i64 0, i64 %24
  %26 = load ptr, ptr %25, align 8
  %27 = mul nuw nsw i32 %23, 24
  %28 = zext nneg i32 %27 to i64
  %29 = getelementptr inbounds i8, ptr %26, i64 %28
  %30 = getelementptr inbounds nuw i8, ptr %29, i64 8
  %31 = atomicrmw sub ptr %30, i32 1 seq_cst, align 4
  %32 = and i32 %31, 2147483647
  %33 = icmp eq i32 %32, 1
  br i1 %33, label %34, label %_ZSt8_DestroyIN32pxrInternal_v0_24__pxrReserved__7SdfPathEEvPT_.exit.i.i.i.i

34:                                               ; preds = %21
  invoke void @_ZNK32pxrInternal_v0_24__pxrReserved__12Sdf_PathNode8_DestroyEv(ptr noundef nonnull align 8 dereferenceable(16) %29)
          to label %_ZSt8_DestroyIN32pxrInternal_v0_24__pxrReserved__7SdfPathEEvPT_.exit.i.i.i.i unwind label %35

35:                                               ; preds = %34
  %36 = landingpad { ptr, i32 }
          catch ptr null
  %37 = extractvalue { ptr, i32 } %36, 0
  call void @__clang_call_terminate(ptr %37) #18
  unreachable

_ZSt8_DestroyIN32pxrInternal_v0_24__pxrReserved__7SdfPathEEvPT_.exit.i.i.i.i: ; preds = %34, %21, %.lr.ph.i.i.i.i
  %38 = getelementptr inbounds i8, ptr %.05.i.i.i.i, i64 8
  %.not.i.i.i.i = icmp eq ptr %38, %19
  br i1 %.not.i.i.i.i, label %_ZSt8_DestroyIPN32pxrInternal_v0_24__pxrReserved__7SdfPathES1_EvT_S3_RSaIT0_E.exitthread-pre-split.i, label %.lr.ph.i.i.i.i, !llvm.loop !6

_ZSt8_DestroyIPN32pxrInternal_v0_24__pxrReserved__7SdfPathES1_EvT_S3_RSaIT0_E.exitthread-pre-split.i: ; preds = %_ZSt8_DestroyIN32pxrInternal_v0_24__pxrReserved__7SdfPathEEvPT_.exit.i.i.i.i
  %.pr.i = load ptr, ptr %4, align 8
  br label %_ZSt8_DestroyIPN32pxrInternal_v0_24__pxrReserved__7SdfPathES1_EvT_S3_RSaIT0_E.exit.i

_ZSt8_DestroyIPN32pxrInternal_v0_24__pxrReserved__7SdfPathES1_EvT_S3_RSaIT0_E.exit.i: ; preds = %_ZSt8_DestroyIPN32pxrInternal_v0_24__pxrReserved__7SdfPathES1_EvT_S3_RSaIT0_E.exitthread-pre-split.i, %_ZN32pxrInternal_v0_24__pxrReserved__7VtArrayINS_7SdfPathEEC2IN9__gnu_cxx17__normal_iteratorIPS1_St6vectorIS1_SaIS1_EEEEEET_SB_PNSt9enable_ifIXntsr3std11is_integralISB_EE5valueEvE4typeE.exit
  %39 = phi ptr [ %.pr.i, %_ZSt8_DestroyIPN32pxrInternal_v0_24__pxrReserved__7SdfPathES1_EvT_S3_RSaIT0_E.exitthread-pre-split.i ], [ %18, %_ZN32pxrInternal_v0_24__pxrReserved__7VtArrayINS_7SdfPathEEC2IN9__gnu_cxx17__normal_iteratorIPS1_St6vectorIS1_SaIS1_EEEEEET_SB_PNSt9enable_ifIXntsr3std11is_integralISB_EE5valueEvE4typeE.exit ]
  %.not.i.i.i = icmp eq ptr %39, null
  br i1 %.not.i.i.i, label %_ZNSt6vectorIN32pxrInternal_v0_24__pxrReserved__7SdfPathESaIS1_EED2Ev.exit, label %40

40:                                               ; preds = %_ZSt8_DestroyIPN32pxrInternal_v0_24__pxrReserved__7SdfPathES1_EvT_S3_RSaIT0_E.exit.i
  %41 = getelementptr inbounds nuw i8, ptr %4, i64 16
  %42 = load ptr, ptr %41, align 8
  %43 = ptrtoint ptr %42 to i64
  %44 = ptrtoint ptr %39 to i64
  %45 = sub i64 %43, %44
  call void @_ZdlPvm(ptr noundef nonnull %39, i64 noundef %45) #20
  br label %_ZNSt6vectorIN32pxrInternal_v0_24__pxrReserved__7SdfPathESaIS1_EED2Ev.exit

_ZNSt6vectorIN32pxrInternal_v0_24__pxrReserved__7SdfPathESaIS1_EED2Ev.exit: ; preds = %_ZSt8_DestroyIPN32pxrInternal_v0_24__pxrReserved__7SdfPathES1_EvT_S3_RSaIT0_E.exit.i, %40
  ret void
}